; Function Attrs: nounwind uwtable
define noundef ptr @SRP_VBASE_get_by_user(ptr noundef readonly captures(address_is_null) %0, ptr noundef readonly captures(none) %1) local_unnamed_addr #0 {
  %3 = icmp eq ptr %0, null
  br i1 %3, label %find_user.exit, label %.preheader.i

.preheader.i:                                     ; preds = %2
  %4 = load ptr, ptr %0, align 8, !tbaa !15
  %5 = tail call i32 @OPENSSL_sk_num(ptr noundef %4) #7
  %6 = icmp sgt i32 %5, 0
  br i1 %6, label %.lr.ph.i, label %find_user.exit

7:                                                ; preds = %.lr.ph.i
  %8 = add nuw nsw i32 %.0911.i, 1
  %9 = load ptr, ptr %0, align 8, !tbaa !15
  %10 = tail call i32 @OPENSSL_sk_num(ptr noundef %9) #7
  %11 = icmp slt i32 %8, %10
  br i1 %11, label %.lr.ph.i, label %find_user.exit, !llvm.loop !43

.lr.ph.i:                                         ; preds = %.preheader.i, %7
  %.0911.i = phi i32 [ %8, %7 ], [ 0, %.preheader.i ]
  %12 = load ptr, ptr %0, align 8, !tbaa !15
  %13 = tail call ptr @OPENSSL_sk_value(ptr noundef %12, i32 noundef %.0911.i) #7
  %14 = load ptr, ptr %13, align 8, !tbaa !11
  %15 = tail call i32 @strcmp(ptr noundef nonnull dereferenceable(1) %14, ptr noundef nonnull readonly dereferenceable(1) %1) #8
  %16 = icmp eq i32 %15, 0
  br i1 %16, label %find_user.exit, label %7

find_user.exit:                                   ; preds = %7, %.lr.ph.i, %2, %.preheader.i
  %.0.i = phi ptr [ null, %2 ], [ null, %.preheader.i ], [ null, %7 ], [ %13, %.lr.ph.i ]
  ret ptr %.0.i
}